; Function Attrs: nounwind uwtable
define dso_local void @Curl_conn_cf_discard_all(ptr noundef %0, ptr noundef captures(none) %1, i32 noundef %2) local_unnamed_addr #1 {
  %4 = getelementptr inbounds nuw i8, ptr %1, i64 608
  %5 = sext i32 %2 to i64
  %6 = getelementptr inbounds [2 x ptr], ptr %4, i64 0, i64 %5
  %7 = load ptr, ptr %6, align 8, !tbaa !51
  %.not.i = icmp eq ptr %7, null
  br i1 %.not.i, label %Curl_conn_cf_discard_chain.exit, label %8

8:                                                ; preds = %3
  store ptr null, ptr %6, align 8, !tbaa !51
  br label %9

9:                                                ; preds = %9, %8
  %.013.i = phi ptr [ %7, %8 ], [ %11, %9 ]
  %10 = getelementptr inbounds nuw i8, ptr %.013.i, i64 8
  %11 = load ptr, ptr %10, align 8, !tbaa !8
  store ptr null, ptr %10, align 8, !tbaa !8
  %12 = load ptr, ptr %.013.i, align 8, !tbaa !15
  %13 = getelementptr inbounds nuw i8, ptr %12, i64 16
  %14 = load ptr, ptr %13, align 8, !tbaa !52
  tail call void %14(ptr noundef nonnull %.013.i, ptr noundef %0) #12
  %15 = load ptr, ptr @Curl_cfree, align 8, !tbaa !53
  tail call void %15(ptr noundef nonnull %.013.i) #12
  %.not12.i = icmp eq ptr %11, null
  br i1 %.not12.i, label %Curl_conn_cf_discard_chain.exit, label %9, !llvm.loop !54

Curl_conn_cf_discard_chain.exit:                  ; preds = %9, %3
  ret void
}